; Function Attrs: mustprogress nounwind uwtable
define hidden noundef ptr @_ZN12JvmtiEnvBase13jni_referenceE6Handle(ptr nocapture noundef nonnull readnone align 8 dereferenceable(460) %0, ptr readonly %1) local_unnamed_addr #0 align 2 {
  %3 = icmp eq ptr %1, null
  br i1 %3, label %_ZNK6HandleclEv.exit, label %4

4:                                                ; preds = %2
  %5 = load ptr, ptr %1, align 8
  br label %_ZNK6HandleclEv.exit

_ZNK6HandleclEv.exit:                             ; preds = %2, %4
  %6 = phi ptr [ %5, %4 ], [ null, %2 ]
  %7 = tail call noundef ptr @_ZN10JNIHandles10make_localEP7oopDesc(ptr noundef %6) #18
  ret ptr %7
}